; Function Attrs: mustprogress uwtable
define internal fastcc noundef float @_ZN3gmx15analysismodulesL16roundedFrameTimeERK10t_trxframe(ptr nocapture noundef nonnull readonly align 8 dereferenceable(176) %0) unnamed_addr #1 personality ptr @__gxx_personality_v0 {
  %2 = alloca %"class.gmx::ToleranceError", align 8
  %3 = alloca %"class.gmx::ExceptionInitializer", align 8
  %4 = alloca %"class.std::__cxx11::basic_string", align 8
  %5 = alloca %"class.gmx::ExceptionInfo", align 8
  %6 = getelementptr inbounds i8, ptr %0, i64 28
  %7 = load float, ptr %6, align 4
  %8 = tail call noundef float @llvm.round.f32(float %7)
  %9 = fsub float %8, %7
  %10 = tail call noundef float @llvm.fabs.f32(float %9)
  %11 = fadd float %7, %8
  %12 = tail call noundef float @llvm.fabs.f32(float %11)
  %13 = fmul float %12, 0x3FB99999A0000000
  %14 = fcmp ogt float %10, %13
  br i1 %14, label %15, label %35

15:                                               ; preds = %1
  %16 = tail call ptr @__cxa_allocate_exception(i64 24) #21
  %17 = getelementptr inbounds i8, ptr %0, i64 16
  %18 = load i64, ptr %17, align 8
  %19 = load float, ptr %6, align 4
  %20 = fpext float %19 to double
  invoke void (ptr, ptr, ...) @_ZN3gmx12formatStringB5cxx11EPKcz(ptr dead_on_unwind nonnull writable sret(%"class.std::__cxx11::basic_string") align 8 %4, ptr noundef nonnull @.str.67, i64 noundef %18, double noundef %20)
          to label %21 unwind label %.thread

21:                                               ; preds = %15
  invoke void @_ZNSt7__cxx1112basic_stringIcSt11char_traitsIcESaIcEEC1ERKS4_(ptr noundef nonnull align 8 dereferenceable(32) %3, ptr noundef nonnull align 8 dereferenceable(32) %4)
          to label %22 unwind label %.thread23

22:                                               ; preds = %21
  %23 = getelementptr inbounds i8, ptr %3, i64 32
  call void @llvm.memset.p0.i64(ptr noundef nonnull align 8 dereferenceable(24) %23, i8 0, i64 24, i1 false)
  invoke void @_ZN3gmx16GromacsExceptionC2ERKNS_20ExceptionInitializerE(ptr noundef nonnull align 8 dereferenceable(24) %2, ptr noundef nonnull align 8 dereferenceable(56) %3)
          to label %24 unwind label %29

24:                                               ; preds = %22
  store ptr getelementptr inbounds inrange(-16, 32) ({ [6 x ptr] }, ptr @_ZTVN3gmx14ToleranceErrorE, i64 0, i32 0, i64 2), ptr %2, align 8
  store ptr getelementptr inbounds inrange(-16, 16) ({ [4 x ptr] }, ptr @_ZTVN3gmx13ExceptionInfoINS_22ExceptionInfoLocation_ENS_13ThrowLocationEEE, i64 0, i32 0, i64 2), ptr %5, align 8
  %25 = getelementptr inbounds i8, ptr %5, i64 8
  store ptr @__PRETTY_FUNCTION__._ZN3gmx15analysismodulesL16roundedFrameTimeERK10t_trxframe, ptr %25, align 8
  %.sroa.2.0..sroa_idx = getelementptr inbounds i8, ptr %5, i64 16
  store ptr @.str.62, ptr %.sroa.2.0..sroa_idx, align 8
  %.sroa.3.0..sroa_idx = getelementptr inbounds i8, ptr %5, i64 24
  store i32 653, ptr %.sroa.3.0..sroa_idx, align 8
  invoke void @_ZN3gmxlsINS_14ToleranceErrorENS_22ExceptionInfoLocation_ENS_13ThrowLocationEEENSt9enable_ifIXsr3std10is_base_ofINS_16GromacsExceptionET_EE5valueES6_E4typeES6_RKNS_13ExceptionInfoIT0_T1_EE(ptr dead_on_unwind writable sret(%"class.gmx::ToleranceError") align 8 %16, ptr noundef nonnull %2, ptr noundef nonnull align 8 dereferenceable(32) %5)
          to label %26 unwind label %31

26:                                               ; preds = %24
  invoke void @__cxa_throw(ptr %16, ptr nonnull @_ZTIN3gmx14ToleranceErrorE, ptr nonnull @_ZN3gmx14ToleranceErrorD2Ev) #24
          to label %37 unwind label %31

.thread:                                          ; preds = %15
  %27 = landingpad { ptr, i32 }
          cleanup
  br label %34

.thread23:                                        ; preds = %21
  %28 = landingpad { ptr, i32 }
          cleanup
  call void @_ZNSt7__cxx1112basic_stringIcSt11char_traitsIcESaIcEED1Ev(ptr noundef nonnull align 8 dereferenceable(32) %4) #21
  br label %34

29:                                               ; preds = %22
  %30 = landingpad { ptr, i32 }
          cleanup
  br label %33

31:                                               ; preds = %26, %24
  %.0 = phi i1 [ false, %26 ], [ true, %24 ]
  %32 = landingpad { ptr, i32 }
          cleanup
  call void @_ZN3gmx8internal14IExceptionInfoD2Ev(ptr noundef nonnull align 8 dereferenceable(8) %5) #21
  call void @_ZN3gmx14ToleranceErrorD2Ev(ptr noundef nonnull align 8 dereferenceable(24) %2) #21
  br label %33

33:                                               ; preds = %29, %31
  %.pn = phi { ptr, i32 } [ %32, %31 ], [ %30, %29 ]
  %.1 = phi i1 [ %.0, %31 ], [ true, %29 ]
  call void @_ZN3gmx20ExceptionInitializerD2Ev(ptr noundef nonnull align 8 dereferenceable(56) %3) #21
  call void @_ZNSt7__cxx1112basic_stringIcSt11char_traitsIcESaIcEED1Ev(ptr noundef nonnull align 8 dereferenceable(32) %4) #21
  br i1 %.1, label %34, label %36

34:                                               ; preds = %.thread23, %.thread, %33
  %.pn.pn.pn22 = phi { ptr, i32 } [ %27, %.thread ], [ %.pn, %33 ], [ %28, %.thread23 ]
  call void @__cxa_free_exception(ptr %16) #21
  br label %36

35:                                               ; preds = %1
  ret float %8

36:                                               ; preds = %33, %34
  %.pn.pn.pn21 = phi { ptr, i32 } [ %.pn, %33 ], [ %.pn.pn.pn22, %34 ]
  resume { ptr, i32 } %.pn.pn.pn21

37:                                               ; preds = %26
  unreachable
}